target datalayout = "e-m:e-p270:32:32-p271:32:32-p272:64:64-i64:64-i128:128-f80:128-n8:16:32:64-S128"
target triple = "x86_64-pc-linux-gnu"

%struct.redisServer = type { i32, i64, ptr, ptr, ptr, i32, i32, i32, i32, i32, ptr, ptr, ptr, ptr, ptr, i32, i32, i32, i32, i64, i32, i32, i32, i32, ptr, i32, i32, [41 x i8], i32, i64, i32, i32, i32, ptr, ptr, i32, i32, i64, ptr, ptr, ptr, ptr, [2 x i32], i32, i32, i32, i32, i32, i32, [16 x ptr], i32, ptr, ptr, i32, [8 x %struct.connListener], i32, %struct.connListener, ptr, ptr, ptr, ptr, ptr, ptr, ptr, ptr, ptr, ptr, i32, ptr, i32, ptr, [3 x %struct.pause_event], [256 x i8], ptr, i64, i32, i32, [128 x i32], i32, i32, i64, i32, i32, i32, i32, i32, i64, i64, i64, i64, i64, i64, i64, i64, i64, i64, double, i64, i64, i64, i64, i64, i64, i64, i64, i64, i64, i64, i64, i64, i64, i64, i64, i64, i64, i64, i64, i64, double, i64, i64, i64, i64, i64, ptr, i64, i64, i64, %struct.malloc_stats, i64, i64, i64, i64, i64, i64, i64, i64, i64, i64, i64, i64, double, [4 x i64], i64, i64, i64, i64, [128 x i64], [128 x i64], i64, i64, [7 x %struct.anon], i64, i64, i64, i64, i64, i64, [4 x %struct.durationStats], i32, i32, i32, i32, i32, i32, i32, i32, i32, i32, i32, i32, i64, i32, i32, i32, i32, i64, i64, i32, i32, i32, i32, i32, ptr, [3 x %struct.clientBufferLimitsConfig], i32, i32, i32, ptr, i32, i32, i32, i32, i32, i32, ptr, ptr, i32, i32, i64, i64, i64, i64, i64, i32, i32, ptr, i32, i32, i64, i64, i64, i64, i64, i32, i32, i64, i32, i32, i32, i32, i32, i32, i32, i32, ptr, i32, i64, i64, i64, i64, i32, ptr, i32, ptr, i32, i32, i32, i64, i64, i64, i64, i32, i32, i32, i32, i32, i32, ptr, i32, i32, ptr, i32, i32, i32, [2 x i32], i32, %struct.redisOpArray, i32, ptr, i32, ptr, i32, i32, i32, i32, i32, i32, i32, [41 x i8], [41 x i8], i64, i64, i64, i64, i32, i32, ptr, i64, i64, %struct.replDataBuf, i64, i64, i32, i32, i32, i32, i32, i32, i32, i32, i32, i64, ptr, i64, ptr, ptr, ptr, i32, i32, ptr, ptr, i32, i32, i32, i64, i64, i64, i64, ptr, ptr, i32, ptr, i64, i32, i32, i32, i64, i32, i32, i32, i32, ptr, i32, i32, [41 x i8], i64, i32, ptr, i32, i32, i64, i64, i32, i32, i32, i32, i32, i64, [3 x i32], i32, i32, i32, [10 x i32], ptr, ptr, i32, i64, ptr, ptr, i32, i32, i32, i32, i64, i64, i64, i64, i64, i64, i64, i64, i64, i64, i32, i32, i64, i64, i32, i64, i64, i64, i64, i64, ptr, ptr, i32, ptr, i32, i32, i32, i32, i64, i64, ptr, ptr, i32, i32, i32, i32, i32, ptr, ptr, ptr, i32, i32, i32, i32, i32, i32, i32, i64, i32, i32, i64, i32, i32, i32, i32, i32, i32, i32, i64, ptr, ptr, i64, ptr, i32, %struct.aclInfo, i32, i64, i32, i32, i32, %struct.redisTLSContextConfig, ptr, ptr, ptr, ptr, ptr, i64, i32, ptr, i32, i32, i32, i64, i32, ptr }
%struct.connListener = type { [16 x i32], i32, ptr, i32, i32, ptr, ptr }
%struct.pause_event = type { i32, i64 }
%struct.malloc_stats = type { i64, i64, i64, i64, i64, i64, i64, i64, i64, i64, i64 }
%struct.anon = type { i64, i64, [16 x i64], i32 }
%struct.durationStats = type { i64, i64, i64 }
%struct.clientBufferLimitsConfig = type { i64, i64, i64 }
%struct.redisOpArray = type { ptr, i32, i32 }
%struct.replDataBuf = type { ptr, i64, i64, i64, i64 }
%struct.aclInfo = type { i64, i64, i64, i64 }
%struct.redisTLSContextConfig = type { ptr, ptr, ptr, ptr, ptr, ptr, ptr, ptr, ptr, ptr, ptr, ptr, i32, i32, i32, i32 }
%struct.raxIterator = type { i32, ptr, ptr, ptr, i64, i64, [128 x i8], ptr, %struct.raxStack, ptr }
%struct.raxStack = type { ptr, i64, i64, [32 x ptr], i32 }
%struct.client = type { i64, i64, ptr, i8, i8, i8, i8, i32, ptr, ptr, ptr, ptr, ptr, i64, i64, i32, ptr, i32, i32, ptr, i64, ptr, ptr, ptr, ptr, ptr, i32, i32, i64, ptr, i64, ptr, i64, i64, i64, i32, ptr, i64, i64, i32, i32, i32, i32, i64, i64, ptr, i64, i64, i64, i64, i64, i64, i64, i64, [41 x i8], i32, ptr, i32, i32, i64, %struct.multiState, %struct.blockingState, i64, ptr, ptr, ptr, ptr, ptr, ptr, ptr, ptr, ptr, ptr, ptr, ptr, ptr, ptr, i64, ptr, i64, i32, ptr, ptr, ptr, i64, %struct.listNode, i64, i64, i32, i64, ptr }
%struct.multiState = type { ptr, i32, i32, i32, i64, i32 }
%struct.blockingState = type { i32, i64, i32, ptr, i32, i32, i64, ptr, ptr, i64 }
%struct.listNode = type { ptr, ptr, ptr }
%struct.bcastState = type { ptr, ptr }

@PrefixTable = dso_local global ptr null, align 8
@.str = private unnamed_addr constant [2 x i8] c"^\00", align 1
@.str.1 = private unnamed_addr constant [6 x i8] c"found\00", align 1
@.str.2 = private unnamed_addr constant [11 x i8] c"tracking.c\00", align 1
@server = external global %struct.redisServer, align 8

; Function Attrs: nounwind uwtable
define dso_local void @disableTracking(ptr noundef %0) #0 {
  %2 = alloca ptr, align 8
  %3 = alloca %struct.raxIterator, align 8
  %4 = alloca ptr, align 8
  %5 = alloca i32, align 4
  %6 = alloca ptr, align 8
  store ptr %0, ptr %2, align 8, !tbaa !5
  %7 = load ptr, ptr %2, align 8, !tbaa !5
  %8 = getelementptr inbounds nuw %struct.client, ptr %7, i32 0, i32 1
  %9 = load i64, ptr %8, align 8, !tbaa !10
  %10 = and i64 %9, 8589934592
  %11 = icmp ne i64 %10, 0
  br i1 %11, label %12, label %70

12:                                               ; preds = %1
  call void @llvm.lifetime.start.p0(i64 480, ptr %3) #10
  %13 = load ptr, ptr %2, align 8, !tbaa !5
  %14 = getelementptr inbounds nuw %struct.client, ptr %13, i32 0, i32 78
  %15 = load ptr, ptr %14, align 8, !tbaa !30
  call void @raxStart(ptr noundef %3, ptr noundef %15)
  %16 = call i32 @raxSeek(ptr noundef %3, ptr noundef @.str, ptr noundef null, i64 noundef 0)
  br label %17

17:                                               ; preds = %63, %12
  %18 = call i32 @raxNext(ptr noundef %3)
  %19 = icmp ne i32 %18, 0
  br i1 %19, label %20, label %64

20:                                               ; preds = %17
  call void @llvm.lifetime.start.p0(i64 8, ptr %4) #10
  call void @llvm.lifetime.start.p0(i64 4, ptr %5) #10
  %21 = load ptr, ptr @PrefixTable, align 8, !tbaa !31
  %22 = getelementptr inbounds nuw %struct.raxIterator, ptr %3, i32 0, i32 2
  %23 = load ptr, ptr %22, align 8, !tbaa !32
  %24 = getelementptr inbounds nuw %struct.raxIterator, ptr %3, i32 0, i32 4
  %25 = load i64, ptr %24, align 8, !tbaa !36
  %26 = call i32 @raxFind(ptr noundef %21, ptr noundef %23, i64 noundef %25, ptr noundef %4)
  store i32 %26, ptr %5, align 4, !tbaa !37
  %27 = load i32, ptr %5, align 4, !tbaa !37
  %28 = icmp ne i32 %27, 0
  %29 = xor i1 %28, true
  %30 = xor i1 %29, true
  %31 = zext i1 %30 to i32
  %32 = sext i32 %31 to i64
  %33 = call i64 @llvm.expect.i64(i64 %32, i64 1)
  %34 = icmp ne i64 %33, 0
  br i1 %34, label %35, label %36

35:                                               ; preds = %20
  br label %38

36:                                               ; preds = %20
  call void @_serverAssert(ptr noundef @.str.1, ptr noundef @.str.2, i32 noundef 56)
  call void @abort() #11
  unreachable

37:                                               ; No predecessors!
  br label %38

38:                                               ; preds = %37, %35
  call void @llvm.lifetime.start.p0(i64 8, ptr %6) #10
  %39 = load ptr, ptr %4, align 8, !tbaa !38
  store ptr %39, ptr %6, align 8, !tbaa !39
  %40 = load ptr, ptr %6, align 8, !tbaa !39
  %41 = getelementptr inbounds nuw %struct.bcastState, ptr %40, i32 0, i32 1
  %42 = load ptr, ptr %41, align 8, !tbaa !41
  %43 = call i32 @raxRemove(ptr noundef %42, ptr noundef %2, i64 noundef 8, ptr noundef null)
  %44 = load ptr, ptr %6, align 8, !tbaa !39
  %45 = getelementptr inbounds nuw %struct.bcastState, ptr %44, i32 0, i32 1
  %46 = load ptr, ptr %45, align 8, !tbaa !41
  %47 = call i64 @raxSize(ptr noundef %46)
  %48 = icmp eq i64 %47, 0
  br i1 %48, label %49, label %63

49:                                               ; preds = %38
  %50 = load ptr, ptr %6, align 8, !tbaa !39
  %51 = getelementptr inbounds nuw %struct.bcastState, ptr %50, i32 0, i32 1
  %52 = load ptr, ptr %51, align 8, !tbaa !41
  call void @raxFree(ptr noundef %52)
  %53 = load ptr, ptr %6, align 8, !tbaa !39
  %54 = getelementptr inbounds nuw %struct.bcastState, ptr %53, i32 0, i32 0
  %55 = load ptr, ptr %54, align 8, !tbaa !43
  call void @raxFree(ptr noundef %55)
  %56 = load ptr, ptr %6, align 8, !tbaa !39
  call void @zfree(ptr noundef %56)
  %57 = load ptr, ptr @PrefixTable, align 8, !tbaa !31
  %58 = getelementptr inbounds nuw %struct.raxIterator, ptr %3, i32 0, i32 2
  %59 = load ptr, ptr %58, align 8, !tbaa !32
  %60 = getelementptr inbounds nuw %struct.raxIterator, ptr %3, i32 0, i32 4
  %61 = load i64, ptr %60, align 8, !tbaa !36
  %62 = call i32 @raxRemove(ptr noundef %57, ptr noundef %59, i64 noundef %61, ptr noundef null)
  br label %63

63:                                               ; preds = %49, %38
  call void @llvm.lifetime.end.p0(i64 8, ptr %6) #10
  call void @llvm.lifetime.end.p0(i64 4, ptr %5) #10
  call void @llvm.lifetime.end.p0(i64 8, ptr %4) #10
  br label %17, !llvm.loop !44

64:                                               ; preds = %17
  call void @raxStop(ptr noundef %3)
  %65 = load ptr, ptr %2, align 8, !tbaa !5
  %66 = getelementptr inbounds nuw %struct.client, ptr %65, i32 0, i32 78
  %67 = load ptr, ptr %66, align 8, !tbaa !30
  call void @raxFree(ptr noundef %67)
  %68 = load ptr, ptr %2, align 8, !tbaa !5
  %69 = getelementptr inbounds nuw %struct.client, ptr %68, i32 0, i32 78
  store ptr null, ptr %69, align 8, !tbaa !30
  call void @llvm.lifetime.end.p0(i64 480, ptr %3) #10
  br label %70

70:                                               ; preds = %64, %1
  %71 = load ptr, ptr %2, align 8, !tbaa !5
  %72 = getelementptr inbounds nuw %struct.client, ptr %71, i32 0, i32 1
  %73 = load i64, ptr %72, align 8, !tbaa !10
  %74 = and i64 %73, 2147483648
  %75 = icmp ne i64 %74, 0
  br i1 %75, label %76, label %83

76:                                               ; preds = %70
  %77 = load i32, ptr getelementptr inbounds nuw (%struct.redisServer, ptr @server, i32 0, i32 346), align 8, !tbaa !46
  %78 = add i32 %77, -1
  store i32 %78, ptr getelementptr inbounds nuw (%struct.redisServer, ptr @server, i32 0, i32 346), align 8, !tbaa !46
  %79 = load ptr, ptr %2, align 8, !tbaa !5
  %80 = getelementptr inbounds nuw %struct.client, ptr %79, i32 0, i32 1
  %81 = load i64, ptr %80, align 8, !tbaa !10
  %82 = and i64 %81, -272730423297
  store i64 %82, ptr %80, align 8, !tbaa !10
  br label %83

83:                                               ; preds = %76, %70
  ret void
}