; Function Attrs: nounwind uwtable
define dso_local void @disableTracking(ptr noundef %0) local_unnamed_addr #0 {
  %2 = alloca ptr, align 8
  %3 = alloca %struct.raxIterator, align 8
  %4 = alloca ptr, align 8
  store ptr %0, ptr %2, align 8, !tbaa !5
  %5 = getelementptr inbounds nuw i8, ptr %0, i64 8
  %6 = load i64, ptr %5, align 8, !tbaa !10
  %7 = and i64 %6, 8589934592
  %.not = icmp eq i64 %7, 0
  br i1 %.not, label %43, label %8

8:                                                ; preds = %1
  call void @llvm.lifetime.start.p0(i64 480, ptr nonnull %3) #9
  %9 = getelementptr inbounds nuw i8, ptr %0, i64 680
  %10 = load ptr, ptr %9, align 8, !tbaa !30
  call void @raxStart(ptr noundef nonnull %3, ptr noundef %10) #9
  %11 = call i32 @raxSeek(ptr noundef nonnull %3, ptr noundef nonnull @.str, ptr noundef null, i64 noundef 0) #9
  %12 = call i32 @raxNext(ptr noundef nonnull %3) #9
  %.not58 = icmp eq i32 %12, 0
  br i1 %.not58, label %._crit_edge, label %.lr.ph

.lr.ph:                                           ; preds = %8
  %13 = getelementptr inbounds nuw i8, ptr %3, i64 16
  %14 = getelementptr inbounds nuw i8, ptr %3, i64 32
  br label %15

15:                                               ; preds = %.lr.ph, %36
  call void @llvm.lifetime.start.p0(i64 8, ptr nonnull %4) #9
  %16 = load ptr, ptr @PrefixTable, align 8, !tbaa !31
  %17 = load ptr, ptr %13, align 8, !tbaa !32
  %18 = load i64, ptr %14, align 8, !tbaa !36
  %19 = call i32 @raxFind(ptr noundef %16, ptr noundef %17, i64 noundef %18, ptr noundef nonnull %4) #9
  %.not7 = icmp eq i32 %19, 0
  br i1 %.not7, label %20, label %21, !prof !37

20:                                               ; preds = %15
  call void @_serverAssert(ptr noundef nonnull @.str.1, ptr noundef nonnull @.str.2, i32 noundef 56) #9
  call void @abort() #10
  unreachable

21:                                               ; preds = %15
  %22 = load ptr, ptr %4, align 8, !tbaa !38
  %23 = getelementptr inbounds nuw i8, ptr %22, i64 8
  %24 = load ptr, ptr %23, align 8, !tbaa !39
  %25 = call i32 @raxRemove(ptr noundef %24, ptr noundef nonnull %2, i64 noundef 8, ptr noundef null) #9
  %26 = load ptr, ptr %23, align 8, !tbaa !39
  %27 = call i64 @raxSize(ptr noundef %26) #9
  %28 = icmp eq i64 %27, 0
  br i1 %28, label %29, label %36

29:                                               ; preds = %21
  %30 = load ptr, ptr %23, align 8, !tbaa !39
  call void @raxFree(ptr noundef %30) #9
  %31 = load ptr, ptr %22, align 8, !tbaa !41
  call void @raxFree(ptr noundef %31) #9
  call void @zfree(ptr noundef nonnull %22) #9
  %32 = load ptr, ptr @PrefixTable, align 8, !tbaa !31
  %33 = load ptr, ptr %13, align 8, !tbaa !32
  %34 = load i64, ptr %14, align 8, !tbaa !36
  %35 = call i32 @raxRemove(ptr noundef %32, ptr noundef %33, i64 noundef %34, ptr noundef null) #9
  br label %36

36:                                               ; preds = %29, %21
  call void @llvm.lifetime.end.p0(i64 8, ptr nonnull %4) #9
  %37 = call i32 @raxNext(ptr noundef nonnull %3) #9
  %.not5 = icmp eq i32 %37, 0
  br i1 %.not5, label %._crit_edge, label %15, !llvm.loop !42

._crit_edge:                                      ; preds = %36, %8
  call void @raxStop(ptr noundef nonnull %3) #9
  %38 = load ptr, ptr %2, align 8, !tbaa !5
  %39 = getelementptr inbounds nuw i8, ptr %38, i64 680
  %40 = load ptr, ptr %39, align 8, !tbaa !30
  call void @raxFree(ptr noundef %40) #9
  %41 = load ptr, ptr %2, align 8, !tbaa !5
  %42 = getelementptr inbounds nuw i8, ptr %41, i64 680
  store ptr null, ptr %42, align 8, !tbaa !30
  call void @llvm.lifetime.end.p0(i64 480, ptr nonnull %3) #9
  %.phi.trans.insert = getelementptr inbounds nuw i8, ptr %41, i64 8
  %.pre = load i64, ptr %.phi.trans.insert, align 8, !tbaa !10
  br label %43

43:                                               ; preds = %._crit_edge, %1
  %44 = phi i64 [ %.pre, %._crit_edge ], [ %6, %1 ]
  %45 = phi ptr [ %41, %._crit_edge ], [ %0, %1 ]
  %46 = and i64 %44, 2147483648
  %.not6 = icmp eq i64 %46, 0
  br i1 %.not6, label %52, label %47

47:                                               ; preds = %43
  %48 = getelementptr inbounds nuw i8, ptr %45, i64 8
  %49 = load i32, ptr getelementptr inbounds nuw (i8, ptr @server, i64 7648), align 8, !tbaa !44
  %50 = add i32 %49, -1
  store i32 %50, ptr getelementptr inbounds nuw (i8, ptr @server, i64 7648), align 8, !tbaa !44
  %51 = and i64 %44, -272730423297
  store i64 %51, ptr %48, align 8, !tbaa !10
  br label %52

52:                                               ; preds = %47, %43
  ret void
}